target datalayout = "e-m:e-p270:32:32-p271:32:32-p272:64:64-i64:64-i128:128-f80:128-n8:16:32:64-S128"
target triple = "x86_64-pc-linux-gnu"

%struct.mbedtls_asn1_buf = type { i32, i64, ptr }

@.str.10 = private unnamed_addr constant [7 x i8] c"%02X%s\00", align 1
@.str.11 = private unnamed_addr constant [2 x i8] c":\00", align 1
@.str.12 = private unnamed_addr constant [1 x i8] zeroinitializer, align 1
@.str.13 = private unnamed_addr constant [5 x i8] c"....\00", align 1

; Function Attrs: nounwind uwtable
define hidden i32 @mbedtls_x509_serial_gets(ptr noundef %0, i64 noundef %1, ptr noundef %2) #0 {
  %4 = alloca i32, align 4
  %5 = alloca ptr, align 8
  %6 = alloca i64, align 8
  %7 = alloca ptr, align 8
  %8 = alloca i32, align 4
  %9 = alloca i64, align 8
  %10 = alloca i64, align 8
  %11 = alloca i64, align 8
  %12 = alloca ptr, align 8
  %13 = alloca i32, align 4
  store ptr %0, ptr %5, align 8, !tbaa !9
  store i64 %1, ptr %6, align 8, !tbaa !24
  store ptr %2, ptr %7, align 8, !tbaa !11
  call void @llvm.lifetime.start.p0(i64 4, ptr %8) #9
  store i32 -110, ptr %8, align 4, !tbaa !13
  call void @llvm.lifetime.start.p0(i64 8, ptr %9) #9
  call void @llvm.lifetime.start.p0(i64 8, ptr %10) #9
  call void @llvm.lifetime.start.p0(i64 8, ptr %11) #9
  call void @llvm.lifetime.start.p0(i64 8, ptr %12) #9
  %14 = load ptr, ptr %5, align 8, !tbaa !9
  store ptr %14, ptr %12, align 8, !tbaa !9
  %15 = load i64, ptr %6, align 8, !tbaa !24
  store i64 %15, ptr %10, align 8, !tbaa !24
  %16 = load ptr, ptr %7, align 8, !tbaa !11
  %17 = getelementptr inbounds nuw %struct.mbedtls_asn1_buf, ptr %16, i32 0, i32 1
  %18 = load i64, ptr %17, align 8, !tbaa !20
  %19 = icmp ule i64 %18, 32
  br i1 %19, label %20, label %24

20:                                               ; preds = %3
  %21 = load ptr, ptr %7, align 8, !tbaa !11
  %22 = getelementptr inbounds nuw %struct.mbedtls_asn1_buf, ptr %21, i32 0, i32 1
  %23 = load i64, ptr %22, align 8, !tbaa !20
  br label %25

24:                                               ; preds = %3
  br label %25

25:                                               ; preds = %24, %20
  %26 = phi i64 [ %23, %20 ], [ 28, %24 ]
  store i64 %26, ptr %11, align 8, !tbaa !24
  store i64 0, ptr %9, align 8, !tbaa !24
  br label %27

27:                                               ; preds = %83, %25
  %28 = load i64, ptr %9, align 8, !tbaa !24
  %29 = load i64, ptr %11, align 8, !tbaa !24
  %30 = icmp ult i64 %28, %29
  br i1 %30, label %31, label %86

31:                                               ; preds = %27
  %32 = load i64, ptr %9, align 8, !tbaa !24
  %33 = icmp eq i64 %32, 0
  br i1 %33, label %34, label %47

34:                                               ; preds = %31
  %35 = load i64, ptr %11, align 8, !tbaa !24
  %36 = icmp ugt i64 %35, 1
  br i1 %36, label %37, label %47

37:                                               ; preds = %34
  %38 = load ptr, ptr %7, align 8, !tbaa !11
  %39 = getelementptr inbounds nuw %struct.mbedtls_asn1_buf, ptr %38, i32 0, i32 2
  %40 = load ptr, ptr %39, align 8, !tbaa !19
  %41 = load i64, ptr %9, align 8, !tbaa !24
  %42 = getelementptr inbounds nuw i8, ptr %40, i64 %41
  %43 = load i8, ptr %42, align 1, !tbaa !15
  %44 = zext i8 %43 to i32
  %45 = icmp eq i32 %44, 0
  br i1 %45, label %46, label %47

46:                                               ; preds = %37
  br label %83

47:                                               ; preds = %37, %34, %31
  %48 = load ptr, ptr %12, align 8, !tbaa !9
  %49 = load i64, ptr %10, align 8, !tbaa !24
  %50 = load ptr, ptr %7, align 8, !tbaa !11
  %51 = getelementptr inbounds nuw %struct.mbedtls_asn1_buf, ptr %50, i32 0, i32 2
  %52 = load ptr, ptr %51, align 8, !tbaa !19
  %53 = load i64, ptr %9, align 8, !tbaa !24
  %54 = getelementptr inbounds nuw i8, ptr %52, i64 %53
  %55 = load i8, ptr %54, align 1, !tbaa !15
  %56 = zext i8 %55 to i32
  %57 = load i64, ptr %9, align 8, !tbaa !24
  %58 = load i64, ptr %11, align 8, !tbaa !24
  %59 = sub i64 %58, 1
  %60 = icmp ult i64 %57, %59
  %61 = select i1 %60, ptr @.str.11, ptr @.str.12
  %62 = call i32 (ptr, i64, ptr, ...) @snprintf(ptr noundef %48, i64 noundef %49, ptr noundef @.str.10, i32 noundef %56, ptr noundef %61) #9
  store i32 %62, ptr %8, align 4, !tbaa !13
  br label %63

63:                                               ; preds = %47
  %64 = load i32, ptr %8, align 4, !tbaa !13
  %65 = icmp slt i32 %64, 0
  br i1 %65, label %71, label %66

66:                                               ; preds = %63
  %67 = load i32, ptr %8, align 4, !tbaa !13
  %68 = sext i32 %67 to i64
  %69 = load i64, ptr %10, align 8, !tbaa !24
  %70 = icmp uge i64 %68, %69
  br i1 %70, label %71, label %72

71:                                               ; preds = %66, %63
  store i32 -10624, ptr %4, align 4
  store i32 1, ptr %13, align 4
  br label %121

72:                                               ; preds = %66
  %73 = load i32, ptr %8, align 4, !tbaa !13
  %74 = sext i32 %73 to i64
  %75 = load i64, ptr %10, align 8, !tbaa !24
  %76 = sub i64 %75, %74
  store i64 %76, ptr %10, align 8, !tbaa !24
  %77 = load i32, ptr %8, align 4, !tbaa !13
  %78 = sext i32 %77 to i64
  %79 = load ptr, ptr %12, align 8, !tbaa !9
  %80 = getelementptr inbounds nuw i8, ptr %79, i64 %78
  store ptr %80, ptr %12, align 8, !tbaa !9
  br label %81

81:                                               ; preds = %72
  br label %82

82:                                               ; preds = %81
  br label %83

83:                                               ; preds = %82, %46
  %84 = load i64, ptr %9, align 8, !tbaa !24
  %85 = add i64 %84, 1
  store i64 %85, ptr %9, align 8, !tbaa !24
  br label %27, !llvm.loop !51

86:                                               ; preds = %27
  %87 = load i64, ptr %11, align 8, !tbaa !24
  %88 = load ptr, ptr %7, align 8, !tbaa !11
  %89 = getelementptr inbounds nuw %struct.mbedtls_asn1_buf, ptr %88, i32 0, i32 1
  %90 = load i64, ptr %89, align 8, !tbaa !20
  %91 = icmp ne i64 %87, %90
  br i1 %91, label %92, label %116

92:                                               ; preds = %86
  %93 = load ptr, ptr %12, align 8, !tbaa !9
  %94 = load i64, ptr %10, align 8, !tbaa !24
  %95 = call i32 (ptr, i64, ptr, ...) @snprintf(ptr noundef %93, i64 noundef %94, ptr noundef @.str.13) #9
  store i32 %95, ptr %8, align 4, !tbaa !13
  br label %96

96:                                               ; preds = %92
  %97 = load i32, ptr %8, align 4, !tbaa !13
  %98 = icmp slt i32 %97, 0
  br i1 %98, label %104, label %99

99:                                               ; preds = %96
  %100 = load i32, ptr %8, align 4, !tbaa !13
  %101 = sext i32 %100 to i64
  %102 = load i64, ptr %10, align 8, !tbaa !24
  %103 = icmp uge i64 %101, %102
  br i1 %103, label %104, label %105

104:                                              ; preds = %99, %96
  store i32 -10624, ptr %4, align 4
  store i32 1, ptr %13, align 4
  br label %121

105:                                              ; preds = %99
  %106 = load i32, ptr %8, align 4, !tbaa !13
  %107 = sext i32 %106 to i64
  %108 = load i64, ptr %10, align 8, !tbaa !24
  %109 = sub i64 %108, %107
  store i64 %109, ptr %10, align 8, !tbaa !24
  %110 = load i32, ptr %8, align 4, !tbaa !13
  %111 = sext i32 %110 to i64
  %112 = load ptr, ptr %12, align 8, !tbaa !9
  %113 = getelementptr inbounds nuw i8, ptr %112, i64 %111
  store ptr %113, ptr %12, align 8, !tbaa !9
  br label %114

114:                                              ; preds = %105
  br label %115

115:                                              ; preds = %114
  br label %116

116:                                              ; preds = %115, %86
  %117 = load i64, ptr %6, align 8, !tbaa !24
  %118 = load i64, ptr %10, align 8, !tbaa !24
  %119 = sub i64 %117, %118
  %120 = trunc i64 %119 to i32
  store i32 %120, ptr %4, align 4
  store i32 1, ptr %13, align 4
  br label %121

121:                                              ; preds = %116, %104, %71
  call void @llvm.lifetime.end.p0(i64 8, ptr %12) #9
  call void @llvm.lifetime.end.p0(i64 8, ptr %11) #9
  call void @llvm.lifetime.end.p0(i64 8, ptr %10) #9
  call void @llvm.lifetime.end.p0(i64 8, ptr %9) #9
  call void @llvm.lifetime.end.p0(i64 4, ptr %8) #9
  %122 = load i32, ptr %4, align 4
  ret i32 %122
}