; Function Attrs: nofree nounwind uwtable
define hidden i32 @mbedtls_x509_serial_gets(ptr noundef writeonly captures(none) %0, i64 noundef %1, ptr noundef readonly captures(none) %2) local_unnamed_addr #7 {
  %4 = getelementptr inbounds nuw i8, ptr %2, i64 8
  %5 = load i64, ptr %4, align 8, !tbaa !14
  %6 = icmp ult i64 %5, 33
  %spec.select = select i1 %6, i64 %5, i64 28
  %spec.select.fr = freeze i64 %spec.select
  %.not58 = icmp eq i64 %spec.select.fr, 0
  br i1 %.not58, label %._crit_edge, label %.lr.ph

.lr.ph:                                           ; preds = %3
  %.not59 = icmp eq i64 %spec.select.fr, 1
  %7 = getelementptr inbounds nuw i8, ptr %2, i64 16
  %8 = add nsw i64 %spec.select.fr, -1
  br i1 %.not59, label %.lr.ph.split.us, label %.lr.ph.split

.lr.ph.split.us:                                  ; preds = %.lr.ph
  %9 = load ptr, ptr %7, align 8, !tbaa !13
  %10 = load i8, ptr %9, align 1, !tbaa !8
  %11 = zext i8 %10 to i32
  %12 = tail call i32 (ptr, i64, ptr, ...) @snprintf(ptr noundef %0, i64 noundef %1, ptr noundef nonnull @.str.10, i32 noundef %11, ptr noundef nonnull @.str.12) #13
  %13 = icmp slt i32 %12, 0
  br i1 %13, label %.loopexit, label %14

14:                                               ; preds = %.lr.ph.split.us
  %15 = zext nneg i32 %12 to i64
  %.not50.us = icmp ugt i64 %1, %15
  br i1 %.not50.us, label %._crit_edge.loopexit, label %.loopexit

.lr.ph.split:                                     ; preds = %.lr.ph, %33
  %.055 = phi ptr [ %.1, %33 ], [ %0, %.lr.ph ]
  %.03954 = phi i64 [ %.140, %33 ], [ %1, %.lr.ph ]
  %.04153 = phi i64 [ %34, %33 ], [ 0, %.lr.ph ]
  %16 = icmp eq i64 %.04153, 0
  %.pre = load ptr, ptr %7, align 8, !tbaa !13
  br i1 %16, label %17, label %20

17:                                               ; preds = %.lr.ph.split
  %18 = load i8, ptr %.pre, align 1, !tbaa !8
  %19 = icmp eq i8 %18, 0
  br i1 %19, label %33, label %20

20:                                               ; preds = %17, %.lr.ph.split
  %21 = getelementptr inbounds nuw i8, ptr %.pre, i64 %.04153
  %22 = load i8, ptr %21, align 1, !tbaa !8
  %23 = zext i8 %22 to i32
  %24 = icmp ult i64 %.04153, %8
  %25 = select i1 %24, ptr @.str.11, ptr @.str.12
  %26 = tail call i32 (ptr, i64, ptr, ...) @snprintf(ptr noundef %.055, i64 noundef %.03954, ptr noundef nonnull @.str.10, i32 noundef %23, ptr noundef nonnull %25) #13
  %27 = icmp slt i32 %26, 0
  br i1 %27, label %.loopexit, label %28

28:                                               ; preds = %20
  %29 = zext nneg i32 %26 to i64
  %.not50 = icmp ugt i64 %.03954, %29
  br i1 %.not50, label %30, label %.loopexit

30:                                               ; preds = %28
  %31 = sub nuw i64 %.03954, %29
  %32 = getelementptr inbounds nuw i8, ptr %.055, i64 %29
  br label %33

33:                                               ; preds = %17, %30
  %.140 = phi i64 [ %.03954, %17 ], [ %31, %30 ]
  %.1 = phi ptr [ %.055, %17 ], [ %32, %30 ]
  %34 = add nuw i64 %.04153, 1
  %exitcond.not = icmp eq i64 %34, %spec.select.fr
  br i1 %exitcond.not, label %._crit_edge, label %.lr.ph.split, !llvm.loop !38

._crit_edge.loopexit:                             ; preds = %14
  %35 = getelementptr inbounds nuw i8, ptr %0, i64 %15
  %36 = sub nuw i64 %1, %15
  br label %._crit_edge

._crit_edge:                                      ; preds = %33, %._crit_edge.loopexit, %3
  %.039.lcssa = phi i64 [ %1, %3 ], [ %36, %._crit_edge.loopexit ], [ %.140, %33 ]
  %.0.lcssa = phi ptr [ %0, %3 ], [ %35, %._crit_edge.loopexit ], [ %.1, %33 ]
  %37 = load i64, ptr %4, align 8, !tbaa !14
  %.not = icmp eq i64 %spec.select.fr, %37
  br i1 %.not, label %45, label %38

38:                                               ; preds = %._crit_edge
  %39 = tail call i32 (ptr, i64, ptr, ...) @snprintf(ptr noundef %.0.lcssa, i64 noundef %.039.lcssa, ptr noundef nonnull @.str.13) #13
  %40 = icmp slt i32 %39, 0
  br i1 %40, label %.loopexit, label %41

41:                                               ; preds = %38
  %42 = zext nneg i32 %39 to i64
  %.not49 = icmp ugt i64 %.039.lcssa, %42
  br i1 %.not49, label %43, label %.loopexit

43:                                               ; preds = %41
  %44 = sub nuw i64 %.039.lcssa, %42
  br label %45

45:                                               ; preds = %43, %._crit_edge
  %.2 = phi i64 [ %44, %43 ], [ %.039.lcssa, %._crit_edge ]
  %46 = sub i64 %1, %.2
  %47 = trunc i64 %46 to i32
  br label %.loopexit

.loopexit:                                        ; preds = %28, %20, %14, %.lr.ph.split.us, %38, %41, %45
  %.038 = phi i32 [ %47, %45 ], [ -10624, %41 ], [ -10624, %38 ], [ -10624, %.lr.ph.split.us ], [ -10624, %14 ], [ -10624, %20 ], [ -10624, %28 ]
  ret i32 %.038
}